; Function Attrs: nounwind uwtable
define i32 @Abc_NtkCleanup(ptr noundef %0, i32 noundef %1) local_unnamed_addr #0 {
  %3 = tail call ptr @Abc_NtkDfs(ptr noundef %0, i32 noundef 0) #11
  %4 = tail call fastcc i32 @Abc_NtkReduceNodes(ptr noundef %0, ptr noundef %3)
  %.not = icmp eq i32 %1, 0
  br i1 %.not, label %7, label %5

5:                                                ; preds = %2
  %6 = tail call i32 (ptr, ...) @printf(ptr noundef nonnull dereferenceable(1) @.str.2, i32 noundef %4)
  br label %7

7:                                                ; preds = %5, %2
  %8 = getelementptr inbounds nuw i8, ptr %3, i64 8
  %9 = load ptr, ptr %8, align 8, !tbaa !28
  %.not.i = icmp eq ptr %9, null
  br i1 %.not.i, label %Vec_PtrFree.exit, label %10

10:                                               ; preds = %7
  tail call void @free(ptr noundef nonnull %9) #11
  br label %Vec_PtrFree.exit

Vec_PtrFree.exit:                                 ; preds = %7, %10
  tail call void @free(ptr noundef nonnull %3) #11
  ret i32 %4
}